target datalayout = "e-m:e-p270:32:32-p271:32:32-p272:64:64-i64:64-i128:128-f80:128-n8:16:32:64-S128"
target triple = "x86_64-pc-linux-gnu"

%struct.prov_drbg_st = type { ptr, ptr, ptr, ptr, ptr, ptr, ptr, ptr, ptr, ptr, ptr, ptr, ptr, ptr, i32, i16, i32, i64, i64, i64, i64, i64, i64, i64, i32, i32, i64, i64, i32, i32, i32, i64, i32, ptr, ptr, ptr, ptr, ptr, ptr }
%struct.rand_drbg_hash_st = type { %struct.PROV_DIGEST, ptr, i64, [111 x i8], [111 x i8], [111 x i8] }
%struct.PROV_DIGEST = type { ptr, ptr, ptr }

; Function Attrs: nounwind uwtable
define internal i32 @add_bytes(ptr noundef %0, ptr noundef %1, ptr noundef %2, i64 noundef %3) #0 {
  %5 = alloca ptr, align 8
  %6 = alloca ptr, align 8
  %7 = alloca ptr, align 8
  %8 = alloca i64, align 8
  %9 = alloca i64, align 8
  %10 = alloca i32, align 4
  %11 = alloca ptr, align 8
  %12 = alloca i8, align 1
  %13 = alloca ptr, align 8
  store ptr %0, ptr %5, align 8, !tbaa !9
  store ptr %1, ptr %6, align 8, !tbaa !26
  store ptr %2, ptr %7, align 8, !tbaa !26
  store i64 %3, ptr %8, align 8, !tbaa !28
  call void @llvm.lifetime.start.p0(i64 8, ptr %9) #4
  call void @llvm.lifetime.start.p0(i64 4, ptr %10) #4
  call void @llvm.lifetime.start.p0(i64 8, ptr %11) #4
  call void @llvm.lifetime.start.p0(i64 1, ptr %12) #4
  store i8 0, ptr %12, align 1, !tbaa !33
  call void @llvm.lifetime.start.p0(i64 8, ptr %13) #4
  %14 = load ptr, ptr %6, align 8, !tbaa !26
  %15 = load ptr, ptr %5, align 8, !tbaa !9
  %16 = getelementptr inbounds nuw %struct.prov_drbg_st, ptr %15, i32 0, i32 31
  %17 = load i64, ptr %16, align 8, !tbaa !38
  %18 = sub i64 %17, 1
  %19 = getelementptr inbounds nuw i8, ptr %14, i64 %18
  store ptr %19, ptr %13, align 8, !tbaa !26
  %20 = load ptr, ptr %7, align 8, !tbaa !26
  %21 = load i64, ptr %8, align 8, !tbaa !28
  %22 = sub i64 %21, 1
  %23 = getelementptr inbounds nuw i8, ptr %20, i64 %22
  store ptr %23, ptr %11, align 8, !tbaa !26
  %24 = load i64, ptr %8, align 8, !tbaa !28
  store i64 %24, ptr %9, align 8, !tbaa !28
  br label %25

25:                                               ; preds = %46, %4
  %26 = load i64, ptr %9, align 8, !tbaa !28
  %27 = icmp ugt i64 %26, 0
  br i1 %27, label %28, label %53

28:                                               ; preds = %25
  %29 = load ptr, ptr %13, align 8, !tbaa !26
  %30 = load i8, ptr %29, align 1, !tbaa !33
  %31 = zext i8 %30 to i32
  %32 = load ptr, ptr %11, align 8, !tbaa !26
  %33 = load i8, ptr %32, align 1, !tbaa !33
  %34 = zext i8 %33 to i32
  %35 = add nsw i32 %31, %34
  %36 = load i8, ptr %12, align 1, !tbaa !33
  %37 = zext i8 %36 to i32
  %38 = add nsw i32 %35, %37
  store i32 %38, ptr %10, align 4, !tbaa !25
  %39 = load i32, ptr %10, align 4, !tbaa !25
  %40 = ashr i32 %39, 8
  %41 = trunc i32 %40 to i8
  store i8 %41, ptr %12, align 1, !tbaa !33
  %42 = load i32, ptr %10, align 4, !tbaa !25
  %43 = and i32 %42, 255
  %44 = trunc i32 %43 to i8
  %45 = load ptr, ptr %13, align 8, !tbaa !26
  store i8 %44, ptr %45, align 1, !tbaa !33
  br label %46

46:                                               ; preds = %28
  %47 = load i64, ptr %9, align 8, !tbaa !28
  %48 = add i64 %47, -1
  store i64 %48, ptr %9, align 8, !tbaa !28
  %49 = load ptr, ptr %13, align 8, !tbaa !26
  %50 = getelementptr inbounds i8, ptr %49, i32 -1
  store ptr %50, ptr %13, align 8, !tbaa !26
  %51 = load ptr, ptr %11, align 8, !tbaa !26
  %52 = getelementptr inbounds i8, ptr %51, i32 -1
  store ptr %52, ptr %11, align 8, !tbaa !26
  br label %25, !llvm.loop !47

53:                                               ; preds = %25
  %54 = load i8, ptr %12, align 1, !tbaa !33
  %55 = zext i8 %54 to i32
  %56 = icmp ne i32 %55, 0
  br i1 %56, label %57, label %84

57:                                               ; preds = %53
  %58 = load ptr, ptr %5, align 8, !tbaa !9
  %59 = getelementptr inbounds nuw %struct.prov_drbg_st, ptr %58, i32 0, i32 31
  %60 = load i64, ptr %59, align 8, !tbaa !38
  %61 = load i64, ptr %8, align 8, !tbaa !28
  %62 = sub i64 %60, %61
  store i64 %62, ptr %9, align 8, !tbaa !28
  br label %63

63:                                               ; preds = %78, %57
  %64 = load i64, ptr %9, align 8, !tbaa !28
  %65 = icmp ugt i64 %64, 0
  br i1 %65, label %66, label %83

66:                                               ; preds = %63
  %67 = load ptr, ptr %13, align 8, !tbaa !26
  %68 = load i8, ptr %67, align 1, !tbaa !33
  %69 = zext i8 %68 to i32
  %70 = add nsw i32 %69, 1
  %71 = trunc i32 %70 to i8
  store i8 %71, ptr %67, align 1, !tbaa !33
  %72 = load ptr, ptr %13, align 8, !tbaa !26
  %73 = load i8, ptr %72, align 1, !tbaa !33
  %74 = zext i8 %73 to i32
  %75 = icmp ne i32 %74, 0
  br i1 %75, label %76, label %77

76:                                               ; preds = %66
  br label %83

77:                                               ; preds = %66
  br label %78

78:                                               ; preds = %77
  %79 = load i64, ptr %9, align 8, !tbaa !28
  %80 = add i64 %79, -1
  store i64 %80, ptr %9, align 8, !tbaa !28
  %81 = load ptr, ptr %13, align 8, !tbaa !26
  %82 = getelementptr inbounds i8, ptr %81, i32 -1
  store ptr %82, ptr %13, align 8, !tbaa !26
  br label %63, !llvm.loop !48

83:                                               ; preds = %76, %63
  br label %84

84:                                               ; preds = %83, %53
  call void @llvm.lifetime.end.p0(i64 8, ptr %13) #4
  call void @llvm.lifetime.end.p0(i64 1, ptr %12) #4
  call void @llvm.lifetime.end.p0(i64 8, ptr %11) #4
  call void @llvm.lifetime.end.p0(i64 4, ptr %10) #4
  call void @llvm.lifetime.end.p0(i64 8, ptr %9) #4
  ret i32 1
}

; Function Attrs: nounwind uwtable
define internal i32 @add_hash_to_v(ptr noundef %0, i8 noundef zeroext %1, ptr noundef %2, i64 noundef %3) #0 {
  %5 = alloca ptr, align 8
  %6 = alloca i8, align 1
  %7 = alloca ptr, align 8
  %8 = alloca i64, align 8
  %9 = alloca ptr, align 8
  %10 = alloca ptr, align 8
  store ptr %0, ptr %5, align 8, !tbaa !9
  store i8 %1, ptr %6, align 1, !tbaa !33
  store ptr %2, ptr %7, align 8, !tbaa !26
  store i64 %3, ptr %8, align 8, !tbaa !28
  call void @llvm.lifetime.start.p0(i64 8, ptr %9) #4
  %11 = load ptr, ptr %5, align 8, !tbaa !9
  %12 = getelementptr inbounds nuw %struct.prov_drbg_st, ptr %11, i32 0, i32 33
  %13 = load ptr, ptr %12, align 8, !tbaa !11
  store ptr %13, ptr %9, align 8, !tbaa !17
  call void @llvm.lifetime.start.p0(i64 8, ptr %10) #4
  %14 = load ptr, ptr %9, align 8, !tbaa !17
  %15 = getelementptr inbounds nuw %struct.rand_drbg_hash_st, ptr %14, i32 0, i32 1
  %16 = load ptr, ptr %15, align 8, !tbaa !19
  store ptr %16, ptr %10, align 8, !tbaa !45
  %17 = load ptr, ptr %10, align 8, !tbaa !45
  %18 = load ptr, ptr %9, align 8, !tbaa !17
  %19 = getelementptr inbounds nuw %struct.rand_drbg_hash_st, ptr %18, i32 0, i32 0
  %20 = call ptr @ossl_prov_digest_md(ptr noundef %19)
  %21 = call i32 @EVP_DigestInit_ex(ptr noundef %17, ptr noundef %20, ptr noundef null)
  %22 = icmp ne i32 %21, 0
  br i1 %22, label %23, label %66

23:                                               ; preds = %4
  %24 = load ptr, ptr %10, align 8, !tbaa !45
  %25 = call i32 @EVP_DigestUpdate(ptr noundef %24, ptr noundef %6, i64 noundef 1)
  %26 = icmp ne i32 %25, 0
  br i1 %26, label %27, label %66

27:                                               ; preds = %23
  %28 = load ptr, ptr %10, align 8, !tbaa !45
  %29 = load ptr, ptr %9, align 8, !tbaa !17
  %30 = getelementptr inbounds nuw %struct.rand_drbg_hash_st, ptr %29, i32 0, i32 3
  %31 = getelementptr inbounds [111 x i8], ptr %30, i64 0, i64 0
  %32 = load ptr, ptr %5, align 8, !tbaa !9
  %33 = getelementptr inbounds nuw %struct.prov_drbg_st, ptr %32, i32 0, i32 31
  %34 = load i64, ptr %33, align 8, !tbaa !38
  %35 = call i32 @EVP_DigestUpdate(ptr noundef %28, ptr noundef %31, i64 noundef %34)
  %36 = icmp ne i32 %35, 0
  br i1 %36, label %37, label %66

37:                                               ; preds = %27
  %38 = load ptr, ptr %7, align 8, !tbaa !26
  %39 = icmp eq ptr %38, null
  br i1 %39, label %46, label %40

40:                                               ; preds = %37
  %41 = load ptr, ptr %10, align 8, !tbaa !45
  %42 = load ptr, ptr %7, align 8, !tbaa !26
  %43 = load i64, ptr %8, align 8, !tbaa !28
  %44 = call i32 @EVP_DigestUpdate(ptr noundef %41, ptr noundef %42, i64 noundef %43)
  %45 = icmp ne i32 %44, 0
  br i1 %45, label %46, label %66

46:                                               ; preds = %40, %37
  %47 = load ptr, ptr %10, align 8, !tbaa !45
  %48 = load ptr, ptr %9, align 8, !tbaa !17
  %49 = getelementptr inbounds nuw %struct.rand_drbg_hash_st, ptr %48, i32 0, i32 5
  %50 = getelementptr inbounds [111 x i8], ptr %49, i64 0, i64 0
  %51 = call i32 @EVP_DigestFinal(ptr noundef %47, ptr noundef %50, ptr noundef null)
  %52 = icmp ne i32 %51, 0
  br i1 %52, label %53, label %66

53:                                               ; preds = %46
  %54 = load ptr, ptr %5, align 8, !tbaa !9
  %55 = load ptr, ptr %9, align 8, !tbaa !17
  %56 = getelementptr inbounds nuw %struct.rand_drbg_hash_st, ptr %55, i32 0, i32 3
  %57 = getelementptr inbounds [111 x i8], ptr %56, i64 0, i64 0
  %58 = load ptr, ptr %9, align 8, !tbaa !17
  %59 = getelementptr inbounds nuw %struct.rand_drbg_hash_st, ptr %58, i32 0, i32 5
  %60 = getelementptr inbounds [111 x i8], ptr %59, i64 0, i64 0
  %61 = load ptr, ptr %9, align 8, !tbaa !17
  %62 = getelementptr inbounds nuw %struct.rand_drbg_hash_st, ptr %61, i32 0, i32 2
  %63 = load i64, ptr %62, align 8, !tbaa !46
  %64 = call i32 @add_bytes(ptr noundef %54, ptr noundef %57, ptr noundef %60, i64 noundef %63)
  %65 = icmp ne i32 %64, 0
  br label %66

66:                                               ; preds = %53, %46, %40, %27, %23, %4
  %67 = phi i1 [ false, %46 ], [ false, %40 ], [ false, %27 ], [ false, %23 ], [ false, %4 ], [ %65, %53 ]
  %68 = zext i1 %67 to i32
  call void @llvm.lifetime.end.p0(i64 8, ptr %10) #4
  call void @llvm.lifetime.end.p0(i64 8, ptr %9) #4
  ret i32 %68
}