; Function Attrs: nounwind uwtable
define internal fastcc range(i32 0, 2) i32 @add_hash_to_v(ptr noundef readonly captures(none) %0, i8 noundef zeroext range(i8 2, 4) %1, ptr noundef %2, i64 noundef %3) unnamed_addr #0 {
  %5 = alloca i8, align 1
  store i8 %1, ptr %5, align 1, !tbaa !22
  %6 = getelementptr inbounds nuw i8, ptr %0, i64 240
  %7 = load ptr, ptr %6, align 8, !tbaa !3
  %8 = getelementptr inbounds nuw i8, ptr %7, i64 24
  %9 = load ptr, ptr %8, align 8, !tbaa !12
  %10 = tail call ptr @ossl_prov_digest_md(ptr noundef %7) #6
  %11 = tail call i32 @EVP_DigestInit_ex(ptr noundef %9, ptr noundef %10, ptr noundef null) #6
  %.not = icmp eq i32 %11, 0
  br i1 %.not, label %add_bytes.exit, label %12

12:                                               ; preds = %4
  %13 = call i32 @EVP_DigestUpdate(ptr noundef %9, ptr noundef nonnull %5, i64 noundef 1) #6
  %.not17 = icmp eq i32 %13, 0
  br i1 %.not17, label %add_bytes.exit, label %14

14:                                               ; preds = %12
  %15 = getelementptr inbounds nuw i8, ptr %7, i64 40
  %16 = getelementptr inbounds nuw i8, ptr %0, i64 224
  %17 = load i64, ptr %16, align 8, !tbaa !25
  %18 = call i32 @EVP_DigestUpdate(ptr noundef %9, ptr noundef nonnull %15, i64 noundef %17) #6
  %.not18 = icmp eq i32 %18, 0
  br i1 %.not18, label %add_bytes.exit, label %19

19:                                               ; preds = %14
  %20 = icmp eq ptr %2, null
  br i1 %20, label %23, label %21

21:                                               ; preds = %19
  %22 = call i32 @EVP_DigestUpdate(ptr noundef %9, ptr noundef nonnull %2, i64 noundef %3) #6
  %.not19 = icmp eq i32 %22, 0
  br i1 %.not19, label %add_bytes.exit, label %23

23:                                               ; preds = %21, %19
  %24 = getelementptr inbounds nuw i8, ptr %7, i64 262
  %25 = call i32 @EVP_DigestFinal(ptr noundef %9, ptr noundef nonnull %24, ptr noundef null) #6
  %.not20 = icmp eq i32 %25, 0
  br i1 %.not20, label %add_bytes.exit, label %26

26:                                               ; preds = %23
  %27 = getelementptr inbounds nuw i8, ptr %7, i64 32
  %28 = load i64, ptr %27, align 8, !tbaa !32
  %.not31.i = icmp eq i64 %28, 0
  br i1 %.not31.i, label %add_bytes.exit, label %.lr.ph.preheader.i

.lr.ph.preheader.i:                               ; preds = %26
  %29 = load i64, ptr %16, align 8, !tbaa !25
  %30 = getelementptr i8, ptr %15, i64 %29
  %.030.i = getelementptr i8, ptr %30, i64 -1
  %31 = getelementptr i8, ptr %24, i64 %28
  br label %.lr.ph.i

.lr.ph.i:                                         ; preds = %.lr.ph.i, %.lr.ph.preheader.i
  %.035.i = phi ptr [ %.0.i, %.lr.ph.i ], [ %.030.i, %.lr.ph.preheader.i ]
  %.02234.i = phi i32 [ %38, %.lr.ph.i ], [ 0, %.lr.ph.preheader.i ]
  %.pn2933.i = phi ptr [ %.023.i, %.lr.ph.i ], [ %31, %.lr.ph.preheader.i ]
  %.02432.i = phi i64 [ %40, %.lr.ph.i ], [ %28, %.lr.ph.preheader.i ]
  %.023.i = getelementptr i8, ptr %.pn2933.i, i64 -1
  %32 = load i8, ptr %.035.i, align 1, !tbaa !22
  %33 = zext i8 %32 to i32
  %34 = load i8, ptr %.023.i, align 1, !tbaa !22
  %35 = zext i8 %34 to i32
  %36 = add nuw nsw i32 %.02234.i, %33
  %37 = add nuw nsw i32 %36, %35
  %38 = lshr i32 %37, 8
  %39 = trunc i32 %37 to i8
  store i8 %39, ptr %.035.i, align 1, !tbaa !22
  %40 = add i64 %.02432.i, -1
  %.0.i = getelementptr i8, ptr %.035.i, i64 -1
  %.not.i = icmp eq i64 %40, 0
  br i1 %.not.i, label %._crit_edge.i, label %.lr.ph.i, !llvm.loop !34

._crit_edge.i:                                    ; preds = %.lr.ph.i
  %41 = icmp samesign ult i32 %37, 256
  br i1 %41, label %add_bytes.exit, label %42

42:                                               ; preds = %._crit_edge.i
  %43 = load i64, ptr %16, align 8, !tbaa !25
  %44 = sub i64 %43, %28
  %.not2737.i = icmp eq i64 %44, 0
  br i1 %.not2737.i, label %add_bytes.exit, label %.lr.ph41.i

.lr.ph41.i:                                       ; preds = %42, %.lr.ph41.i
  %.139.i = phi ptr [ %48, %.lr.ph41.i ], [ %.0.i, %42 ]
  %.12538.i = phi i64 [ %47, %.lr.ph41.i ], [ %44, %42 ]
  %45 = load i8, ptr %.139.i, align 1, !tbaa !22
  %46 = add i8 %45, 1
  store i8 %46, ptr %.139.i, align 1, !tbaa !22
  %.not28.i = icmp ne i8 %46, 0
  %47 = add i64 %.12538.i, -1
  %48 = getelementptr inbounds i8, ptr %.139.i, i64 -1
  %.not27.i = icmp eq i64 %47, 0
  %or.cond.i = select i1 %.not28.i, i1 true, i1 %.not27.i
  br i1 %or.cond.i, label %add_bytes.exit, label %.lr.ph41.i, !llvm.loop !33

add_bytes.exit:                                   ; preds = %.lr.ph41.i, %42, %._crit_edge.i, %26, %23, %21, %14, %12, %4
  %49 = phi i32 [ 0, %23 ], [ 0, %21 ], [ 0, %14 ], [ 0, %12 ], [ 0, %4 ], [ 1, %26 ], [ 1, %._crit_edge.i ], [ 1, %42 ], [ 1, %.lr.ph41.i ]
  ret i32 %49
}